target datalayout = "e-m:e-p270:32:32-p271:32:32-p272:64:64-i64:64-i128:128-f80:128-n8:16:32:64-S128"
target triple = "x86_64-pc-linux-gnu"

%struct.ogg_codec = type { ptr, i8, ptr, ptr, ptr, ptr, i32, i32, ptr }
%struct.AVFormatContext = type { ptr, ptr, ptr, ptr, ptr, i32, i32, ptr, i32, ptr, i32, ptr, ptr, i64, i64, i64, i32, i32, i32, i64, i64, ptr, i32, i32, ptr, i32, i32, i32, i32, ptr, i64, i32, i32, %struct.AVIOInterruptCB, i32, i32, i32, i32, i64, i32, i32, i32, i32, i32, i32, i32, i32, i32, i32, i32, i32, i64, i32, i32, i32, i32, i32, ptr, ptr, ptr, ptr, i32, ptr, ptr, ptr, ptr, i32, ptr, ptr, i64, ptr, ptr, ptr, i64 }
%struct.AVIOInterruptCB = type { ptr, ptr }
%struct.ogg = type { ptr, i32, i32, i32, i64, ptr }
%struct.ogg_stream = type { ptr, i32, i32, i32, i32, i32, i32, i32, i64, i64, i64, i64, i64, i64, i32, ptr, i32, i32, i32, [255 x i8], i32, i32, i32, i32, i32, i32, i32, i32, ptr, i64, ptr }

@.str.19 = private unnamed_addr constant [17 x i8] c"invalid pts %ld\0A\00", align 1

; Function Attrs: inlinehint nounwind uwtable
define internal i64 @ogg_gptopts(ptr noundef %0, i32 noundef %1, i64 noundef %2, ptr noundef %3) #4 {
  %5 = alloca ptr, align 8
  %6 = alloca i32, align 4
  %7 = alloca i64, align 8
  %8 = alloca ptr, align 8
  %9 = alloca ptr, align 8
  %10 = alloca ptr, align 8
  %11 = alloca i64, align 8
  store ptr %0, ptr %5, align 8, !tbaa !14
  store i32 %1, ptr %6, align 4, !tbaa !37
  store i64 %2, ptr %7, align 8, !tbaa !69
  store ptr %3, ptr %8, align 8, !tbaa !91
  call void @llvm.lifetime.start.p0(i64 8, ptr %9) #10
  %12 = load ptr, ptr %5, align 8, !tbaa !14
  %13 = getelementptr inbounds nuw %struct.AVFormatContext, ptr %12, i32 0, i32 3
  %14 = load ptr, ptr %13, align 8, !tbaa !16
  store ptr %14, ptr %9, align 8, !tbaa !31
  call void @llvm.lifetime.start.p0(i64 8, ptr %10) #10
  %15 = load ptr, ptr %9, align 8, !tbaa !31
  %16 = getelementptr inbounds nuw %struct.ogg, ptr %15, i32 0, i32 0
  %17 = load ptr, ptr %16, align 8, !tbaa !42
  %18 = load i32, ptr %6, align 4, !tbaa !37
  %19 = sext i32 %18 to i64
  %20 = getelementptr inbounds %struct.ogg_stream, ptr %17, i64 %19
  store ptr %20, ptr %10, align 8, !tbaa !43
  call void @llvm.lifetime.start.p0(i64 8, ptr %11) #10
  store i64 -9223372036854775808, ptr %11, align 8, !tbaa !69
  %21 = load ptr, ptr %10, align 8, !tbaa !43
  %22 = getelementptr inbounds nuw %struct.ogg_stream, ptr %21, i32 0, i32 15
  %23 = load ptr, ptr %22, align 8, !tbaa !47
  %24 = icmp ne ptr %23, null
  br i1 %24, label %25, label %43

25:                                               ; preds = %4
  %26 = load ptr, ptr %10, align 8, !tbaa !43
  %27 = getelementptr inbounds nuw %struct.ogg_stream, ptr %26, i32 0, i32 15
  %28 = load ptr, ptr %27, align 8, !tbaa !47
  %29 = getelementptr inbounds nuw %struct.ogg_codec, ptr %28, i32 0, i32 5
  %30 = load ptr, ptr %29, align 8, !tbaa !122
  %31 = icmp ne ptr %30, null
  br i1 %31, label %32, label %43

32:                                               ; preds = %25
  %33 = load ptr, ptr %10, align 8, !tbaa !43
  %34 = getelementptr inbounds nuw %struct.ogg_stream, ptr %33, i32 0, i32 15
  %35 = load ptr, ptr %34, align 8, !tbaa !47
  %36 = getelementptr inbounds nuw %struct.ogg_codec, ptr %35, i32 0, i32 5
  %37 = load ptr, ptr %36, align 8, !tbaa !122
  %38 = load ptr, ptr %5, align 8, !tbaa !14
  %39 = load i32, ptr %6, align 4, !tbaa !37
  %40 = load i64, ptr %7, align 8, !tbaa !69
  %41 = load ptr, ptr %8, align 8, !tbaa !91
  %42 = call i64 %37(ptr noundef %38, i32 noundef %39, i64 noundef %40, ptr noundef %41)
  store i64 %42, ptr %11, align 8, !tbaa !69
  br label %51

43:                                               ; preds = %25, %4
  %44 = load i64, ptr %7, align 8, !tbaa !69
  store i64 %44, ptr %11, align 8, !tbaa !69
  %45 = load ptr, ptr %8, align 8, !tbaa !91
  %46 = icmp ne ptr %45, null
  br i1 %46, label %47, label %50

47:                                               ; preds = %43
  %48 = load i64, ptr %11, align 8, !tbaa !69
  %49 = load ptr, ptr %8, align 8, !tbaa !91
  store i64 %48, ptr %49, align 8, !tbaa !69
  br label %50

50:                                               ; preds = %47, %43
  br label %51

51:                                               ; preds = %50, %32
  %52 = load i64, ptr %11, align 8, !tbaa !69
  %53 = icmp ugt i64 %52, 9223372036854775807
  br i1 %53, label %54, label %60

54:                                               ; preds = %51
  %55 = load i64, ptr %11, align 8, !tbaa !69
  %56 = icmp ne i64 %55, -9223372036854775808
  br i1 %56, label %57, label %60

57:                                               ; preds = %54
  %58 = load ptr, ptr %5, align 8, !tbaa !14
  %59 = load i64, ptr %11, align 8, !tbaa !69
  call void (ptr, i32, ptr, ...) @av_log(ptr noundef %58, i32 noundef 16, ptr noundef @.str.19, i64 noundef %59)
  store i64 -9223372036854775808, ptr %11, align 8, !tbaa !69
  br label %60

60:                                               ; preds = %57, %54, %51
  %61 = load i64, ptr %11, align 8, !tbaa !69
  call void @llvm.lifetime.end.p0(i64 8, ptr %11) #10
  call void @llvm.lifetime.end.p0(i64 8, ptr %10) #10
  call void @llvm.lifetime.end.p0(i64 8, ptr %9) #10
  ret i64 %61
}

; Function Attrs: nounwind uwtable
define internal i64 @ogg_calc_pts(ptr noundef %0, i32 noundef %1, ptr noundef %2) #0 {
  %4 = alloca ptr, align 8
  %5 = alloca i32, align 4
  %6 = alloca ptr, align 8
  %7 = alloca ptr, align 8
  %8 = alloca ptr, align 8
  %9 = alloca i64, align 8
  store ptr %0, ptr %4, align 8, !tbaa !14
  store i32 %1, ptr %5, align 4, !tbaa !37
  store ptr %2, ptr %6, align 8, !tbaa !91
  call void @llvm.lifetime.start.p0(i64 8, ptr %7) #10
  %10 = load ptr, ptr %4, align 8, !tbaa !14
  %11 = getelementptr inbounds nuw %struct.AVFormatContext, ptr %10, i32 0, i32 3
  %12 = load ptr, ptr %11, align 8, !tbaa !16
  store ptr %12, ptr %7, align 8, !tbaa !31
  call void @llvm.lifetime.start.p0(i64 8, ptr %8) #10
  %13 = load ptr, ptr %7, align 8, !tbaa !31
  %14 = getelementptr inbounds nuw %struct.ogg, ptr %13, i32 0, i32 0
  %15 = load ptr, ptr %14, align 8, !tbaa !42
  %16 = load i32, ptr %5, align 4, !tbaa !37
  %17 = sext i32 %16 to i64
  %18 = getelementptr inbounds %struct.ogg_stream, ptr %15, i64 %17
  store ptr %18, ptr %8, align 8, !tbaa !43
  call void @llvm.lifetime.start.p0(i64 8, ptr %9) #10
  store i64 -9223372036854775808, ptr %9, align 8, !tbaa !69
  %19 = load ptr, ptr %6, align 8, !tbaa !91
  %20 = icmp ne ptr %19, null
  br i1 %20, label %21, label %23

21:                                               ; preds = %3
  %22 = load ptr, ptr %6, align 8, !tbaa !91
  store i64 -9223372036854775808, ptr %22, align 8, !tbaa !69
  br label %23

23:                                               ; preds = %21, %3
  %24 = load ptr, ptr %8, align 8, !tbaa !43
  %25 = getelementptr inbounds nuw %struct.ogg_stream, ptr %24, i32 0, i32 10
  %26 = load i64, ptr %25, align 8, !tbaa !63
  %27 = icmp ne i64 %26, -9223372036854775808
  br i1 %27, label %28, label %34

28:                                               ; preds = %23
  %29 = load ptr, ptr %8, align 8, !tbaa !43
  %30 = getelementptr inbounds nuw %struct.ogg_stream, ptr %29, i32 0, i32 10
  %31 = load i64, ptr %30, align 8, !tbaa !63
  store i64 %31, ptr %9, align 8, !tbaa !69
  %32 = load ptr, ptr %8, align 8, !tbaa !43
  %33 = getelementptr inbounds nuw %struct.ogg_stream, ptr %32, i32 0, i32 10
  store i64 -9223372036854775808, ptr %33, align 8, !tbaa !63
  br label %34

34:                                               ; preds = %28, %23
  %35 = load ptr, ptr %8, align 8, !tbaa !43
  %36 = getelementptr inbounds nuw %struct.ogg_stream, ptr %35, i32 0, i32 11
  %37 = load i64, ptr %36, align 8, !tbaa !143
  %38 = icmp ne i64 %37, -9223372036854775808
  br i1 %38, label %39, label %50

39:                                               ; preds = %34
  %40 = load ptr, ptr %6, align 8, !tbaa !91
  %41 = icmp ne ptr %40, null
  br i1 %41, label %42, label %47

42:                                               ; preds = %39
  %43 = load ptr, ptr %8, align 8, !tbaa !43
  %44 = getelementptr inbounds nuw %struct.ogg_stream, ptr %43, i32 0, i32 11
  %45 = load i64, ptr %44, align 8, !tbaa !143
  %46 = load ptr, ptr %6, align 8, !tbaa !91
  store i64 %45, ptr %46, align 8, !tbaa !69
  br label %47

47:                                               ; preds = %42, %39
  %48 = load ptr, ptr %8, align 8, !tbaa !43
  %49 = getelementptr inbounds nuw %struct.ogg_stream, ptr %48, i32 0, i32 11
  store i64 -9223372036854775808, ptr %49, align 8, !tbaa !143
  br label %50

50:                                               ; preds = %47, %34
  %51 = load ptr, ptr %8, align 8, !tbaa !43
  %52 = getelementptr inbounds nuw %struct.ogg_stream, ptr %51, i32 0, i32 21
  %53 = load i32, ptr %52, align 8, !tbaa !120
  %54 = icmp ne i32 %53, 0
  br i1 %54, label %55, label %95

55:                                               ; preds = %50
  %56 = load ptr, ptr %8, align 8, !tbaa !43
  %57 = getelementptr inbounds nuw %struct.ogg_stream, ptr %56, i32 0, i32 8
  %58 = load i64, ptr %57, align 8, !tbaa !110
  %59 = icmp ne i64 %58, -1
  br i1 %59, label %60, label %94

60:                                               ; preds = %55
  %61 = load ptr, ptr %8, align 8, !tbaa !43
  %62 = getelementptr inbounds nuw %struct.ogg_stream, ptr %61, i32 0, i32 15
  %63 = load ptr, ptr %62, align 8, !tbaa !47
  %64 = icmp ne ptr %63, null
  br i1 %64, label %65, label %80

65:                                               ; preds = %60
  %66 = load ptr, ptr %8, align 8, !tbaa !43
  %67 = getelementptr inbounds nuw %struct.ogg_stream, ptr %66, i32 0, i32 15
  %68 = load ptr, ptr %67, align 8, !tbaa !47
  %69 = getelementptr inbounds nuw %struct.ogg_codec, ptr %68, i32 0, i32 6
  %70 = load i32, ptr %69, align 8, !tbaa !156
  %71 = icmp ne i32 %70, 0
  br i1 %71, label %72, label %80

72:                                               ; preds = %65
  %73 = load ptr, ptr %4, align 8, !tbaa !14
  %74 = load i32, ptr %5, align 4, !tbaa !37
  %75 = load ptr, ptr %8, align 8, !tbaa !43
  %76 = getelementptr inbounds nuw %struct.ogg_stream, ptr %75, i32 0, i32 8
  %77 = load i64, ptr %76, align 8, !tbaa !110
  %78 = load ptr, ptr %6, align 8, !tbaa !91
  %79 = call i64 @ogg_gptopts(ptr noundef %73, i32 noundef %74, i64 noundef %77, ptr noundef %78)
  store i64 %79, ptr %9, align 8, !tbaa !69
  br label %91

80:                                               ; preds = %65, %60
  %81 = load ptr, ptr %4, align 8, !tbaa !14
  %82 = load i32, ptr %5, align 4, !tbaa !37
  %83 = load ptr, ptr %8, align 8, !tbaa !43
  %84 = getelementptr inbounds nuw %struct.ogg_stream, ptr %83, i32 0, i32 8
  %85 = load i64, ptr %84, align 8, !tbaa !110
  %86 = load ptr, ptr %8, align 8, !tbaa !43
  %87 = getelementptr inbounds nuw %struct.ogg_stream, ptr %86, i32 0, i32 11
  %88 = call i64 @ogg_gptopts(ptr noundef %81, i32 noundef %82, i64 noundef %85, ptr noundef %87)
  %89 = load ptr, ptr %8, align 8, !tbaa !43
  %90 = getelementptr inbounds nuw %struct.ogg_stream, ptr %89, i32 0, i32 10
  store i64 %88, ptr %90, align 8, !tbaa !63
  br label %91

91:                                               ; preds = %80, %72
  %92 = load ptr, ptr %8, align 8, !tbaa !43
  %93 = getelementptr inbounds nuw %struct.ogg_stream, ptr %92, i32 0, i32 8
  store i64 -1, ptr %93, align 8, !tbaa !110
  br label %94

94:                                               ; preds = %91, %55
  br label %95

95:                                               ; preds = %94, %50
  %96 = load i64, ptr %9, align 8, !tbaa !69
  call void @llvm.lifetime.end.p0(i64 8, ptr %9) #10
  call void @llvm.lifetime.end.p0(i64 8, ptr %8) #10
  call void @llvm.lifetime.end.p0(i64 8, ptr %7) #10
  ret i64 %96
}