; Function Attrs: nounwind uwtable
define internal fastcc i64 @ogg_calc_pts(ptr noundef %0, i32 noundef %1, ptr noundef %2) unnamed_addr #1 {
  %4 = getelementptr inbounds nuw i8, ptr %0, i64 24
  %5 = load ptr, ptr %4, align 8, !tbaa !12
  %6 = load ptr, ptr %5, align 8, !tbaa !35
  %7 = sext i32 %1 to i64
  %8 = getelementptr inbounds %struct.ogg_stream, ptr %6, i64 %7
  %.not = icmp eq ptr %2, null
  br i1 %.not, label %10, label %9

9:                                                ; preds = %3
  store i64 -9223372036854775808, ptr %2, align 8, !tbaa !100
  br label %10

10:                                               ; preds = %9, %3
  %11 = getelementptr inbounds nuw i8, ptr %8, i64 56
  %12 = load i64, ptr %11, align 8, !tbaa !56
  %.not33 = icmp eq i64 %12, -9223372036854775808
  br i1 %.not33, label %14, label %13

13:                                               ; preds = %10
  store i64 -9223372036854775808, ptr %11, align 8, !tbaa !56
  br label %14

14:                                               ; preds = %13, %10
  %15 = getelementptr inbounds nuw i8, ptr %8, i64 64
  %16 = load i64, ptr %15, align 8, !tbaa !76
  %.not34 = icmp eq i64 %16, -9223372036854775808
  br i1 %.not34, label %20, label %17

17:                                               ; preds = %14
  br i1 %.not, label %19, label %18

18:                                               ; preds = %17
  store i64 %16, ptr %2, align 8, !tbaa !100
  br label %19

19:                                               ; preds = %18, %17
  store i64 -9223372036854775808, ptr %15, align 8, !tbaa !76
  br label %20

20:                                               ; preds = %19, %14
  %21 = getelementptr inbounds nuw i8, ptr %8, i64 376
  %22 = load i32, ptr %21, align 8, !tbaa !121
  %.not35 = icmp eq i32 %22, 0
  br i1 %.not35, label %46, label %23

23:                                               ; preds = %20
  %24 = getelementptr inbounds nuw i8, ptr %8, i64 40
  %25 = load i64, ptr %24, align 8, !tbaa !64
  %.not36 = icmp eq i64 %25, -1
  br i1 %.not36, label %46, label %26

26:                                               ; preds = %23
  %27 = getelementptr inbounds nuw i8, ptr %8, i64 96
  %28 = load ptr, ptr %27, align 8, !tbaa !39
  %.not37 = icmp eq ptr %28, null
  br i1 %.not37, label %.thread, label %29

29:                                               ; preds = %26
  %30 = getelementptr inbounds nuw i8, ptr %28, i64 48
  %31 = load i32, ptr %30, align 8, !tbaa !139
  %.not38 = icmp eq i32 %31, 0
  %32 = getelementptr inbounds nuw i8, ptr %28, i64 40
  %33 = load ptr, ptr %32, align 8, !tbaa !45
  %.not22.i40 = icmp eq ptr %33, null
  br i1 %.not38, label %41, label %34

34:                                               ; preds = %29
  br i1 %.not22.i40, label %37, label %35

35:                                               ; preds = %34
  %36 = tail call i64 %33(ptr noundef nonnull %0, i32 noundef %1, i64 noundef %25, ptr noundef %2) #9
  br label %39

37:                                               ; preds = %34
  br i1 %.not, label %39, label %38

38:                                               ; preds = %37
  store i64 %25, ptr %2, align 8, !tbaa !100
  br label %39

39:                                               ; preds = %38, %37, %35
  %.0.i = phi i64 [ %36, %35 ], [ %25, %38 ], [ %25, %37 ]
  %or.cond.i = icmp ugt i64 %.0.i, -9223372036854775808
  br i1 %or.cond.i, label %40, label %ogg_gptopts.exit

40:                                               ; preds = %39
  tail call void (ptr, i32, ptr, ...) @av_log(ptr noundef nonnull %0, i32 noundef 16, ptr noundef nonnull @.str.19, i64 noundef %.0.i) #9
  br label %ogg_gptopts.exit

41:                                               ; preds = %29
  br i1 %.not22.i40, label %.thread, label %42

42:                                               ; preds = %41
  %43 = tail call i64 %33(ptr noundef nonnull %0, i32 noundef %1, i64 noundef %25, ptr noundef nonnull %15) #9
  br label %44

.thread:                                          ; preds = %26, %41
  store i64 %25, ptr %15, align 8, !tbaa !100
  br label %44

44:                                               ; preds = %.thread, %42
  %.0.i41 = phi i64 [ %43, %42 ], [ %25, %.thread ]
  %or.cond.i42 = icmp ugt i64 %.0.i41, -9223372036854775808
  br i1 %or.cond.i42, label %45, label %ogg_gptopts.exit45

45:                                               ; preds = %44
  tail call void (ptr, i32, ptr, ...) @av_log(ptr noundef nonnull %0, i32 noundef 16, ptr noundef nonnull @.str.19, i64 noundef %.0.i41) #9
  br label %ogg_gptopts.exit45

ogg_gptopts.exit45:                               ; preds = %44, %45
  %.1.i43 = phi i64 [ -9223372036854775808, %45 ], [ %.0.i41, %44 ]
  store i64 %.1.i43, ptr %11, align 8, !tbaa !56
  br label %ogg_gptopts.exit

ogg_gptopts.exit:                                 ; preds = %40, %39, %ogg_gptopts.exit45
  %.2 = phi i64 [ %12, %ogg_gptopts.exit45 ], [ -9223372036854775808, %40 ], [ %.0.i, %39 ]
  store i64 -1, ptr %24, align 8, !tbaa !64
  br label %46

46:                                               ; preds = %23, %ogg_gptopts.exit, %20
  %.1 = phi i64 [ %.2, %ogg_gptopts.exit ], [ %12, %23 ], [ %12, %20 ]
  ret i64 %.1
}